target datalayout = "e-m:e-p270:32:32-p271:32:32-p272:64:64-i64:64-i128:128-f80:128-n8:16:32:64-S128"
target triple = "x86_64-pc-linux-gnu"

%class.TransTableS = type <{ %class.TransTable, [14 x i64], %"struct.TransTableS::statsResetsType", [4 x i8], [5 x %"struct.TransTableS::winCardType"], i32, i32, i64, i64, i64, i32, i32, i32, i32, i32, i8, [3 x i8], i32, [4 x i8], ptr, [14 x [4 x ptr]], ptr, ptr, [14 x [4 x ptr]], ptr, ptr, [14 x [4 x ptr]], i32, i32, [14 x [4 x i32]], [14 x [4 x i32]], %"class.std::vector", [14 x i64], i32, [4 x i8] }>
%class.TransTable = type { ptr }
%"struct.TransTableS::statsResetsType" = type { i32, [6 x i32] }
%"struct.TransTableS::winCardType" = type { i32, i32, ptr, ptr, ptr, ptr }
%"class.std::vector" = type { %"struct.std::_Vector_base" }
%"struct.std::_Vector_base" = type { %"struct.std::_Vector_base<std::__cxx11::basic_string<char>, std::allocator<std::__cxx11::basic_string<char>>>::_Vector_impl" }
%"struct.std::_Vector_base<std::__cxx11::basic_string<char>, std::allocator<std::__cxx11::basic_string<char>>>::_Vector_impl" = type { %"struct.std::_Vector_base<std::__cxx11::basic_string<char>, std::allocator<std::__cxx11::basic_string<char>>>::_Vector_impl_data" }
%"struct.std::_Vector_base<std::__cxx11::basic_string<char>, std::allocator<std::__cxx11::basic_string<char>>>::_Vector_impl_data" = type { ptr, ptr, ptr }

; Function Attrs: mustprogress nounwind uwtable
define void @_ZN11TransTableS6InitTTEv(ptr noundef nonnull align 8 dereferenceable(2396) %0) #5 align 2 {
  %2 = alloca ptr, align 8
  %3 = alloca i32, align 4
  %4 = alloca i32, align 4
  store ptr %0, ptr %2, align 8
  %5 = load ptr, ptr %2, align 8
  %6 = getelementptr inbounds nuw %class.TransTableS, ptr %5, i32 0, i32 6
  store i32 170000, ptr %6, align 4
  %7 = getelementptr inbounds nuw %class.TransTableS, ptr %5, i32 0, i32 5
  store i32 60000, ptr %7, align 8
  %8 = getelementptr inbounds nuw %class.TransTableS, ptr %5, i32 0, i32 8
  store i64 6800040, ptr %8, align 8
  %9 = getelementptr inbounds nuw %class.TransTableS, ptr %5, i32 0, i32 8
  %10 = load i64, ptr %9, align 8
  %11 = add i64 %10, 480008
  store i64 %11, ptr %9, align 8
  %12 = getelementptr inbounds nuw %class.TransTableS, ptr %5, i32 0, i32 8
  %13 = load i64, ptr %12, align 8
  %14 = add i64 %13, 334464
  store i64 %14, ptr %12, align 8
  %15 = getelementptr inbounds nuw %class.TransTableS, ptr %5, i32 0, i32 21
  %16 = load ptr, ptr %15, align 8
  %17 = getelementptr inbounds ptr, ptr %16, i64 0
  %18 = load ptr, ptr %17, align 8
  %19 = getelementptr inbounds nuw %class.TransTableS, ptr %5, i32 0, i32 25
  store ptr %18, ptr %19, align 8
  %20 = getelementptr inbounds nuw %class.TransTableS, ptr %5, i32 0, i32 22
  %21 = load ptr, ptr %20, align 8
  %22 = getelementptr inbounds ptr, ptr %21, i64 0
  %23 = load ptr, ptr %22, align 8
  %24 = getelementptr inbounds nuw %class.TransTableS, ptr %5, i32 0, i32 24
  store ptr %23, ptr %24, align 8
  %25 = getelementptr inbounds nuw %class.TransTableS, ptr %5, i32 0, i32 13
  store i32 0, ptr %25, align 4
  %26 = getelementptr inbounds nuw %class.TransTableS, ptr %5, i32 0, i32 14
  store i32 0, ptr %26, align 8
  %27 = getelementptr inbounds nuw %class.TransTableS, ptr %5, i32 0, i32 27
  store i32 0, ptr %27, align 8
  %28 = getelementptr inbounds nuw %class.TransTableS, ptr %5, i32 0, i32 28
  store i32 0, ptr %28, align 4
  %29 = getelementptr inbounds nuw %class.TransTableS, ptr %5, i32 0, i32 15
  store i8 0, ptr %29, align 4
  %30 = getelementptr inbounds nuw %class.TransTableS, ptr %5, i32 0, i32 17
  store i32 -1, ptr %30, align 8
  store i32 1, ptr %3, align 4
  br label %31

31:                                               ; preds = %74, %1
  %32 = load i32, ptr %3, align 4
  %33 = icmp sle i32 %32, 13
  br i1 %33, label %34, label %77

34:                                               ; preds = %31
  store i32 0, ptr %4, align 4
  br label %35

35:                                               ; preds = %70, %34
  %36 = load i32, ptr %4, align 4
  %37 = icmp slt i32 %36, 4
  br i1 %37, label %38, label %73

38:                                               ; preds = %35
  %39 = getelementptr inbounds nuw %class.TransTableS, ptr %5, i32 0, i32 23
  %40 = load i32, ptr %3, align 4
  %41 = sext i32 %40 to i64
  %42 = getelementptr inbounds [14 x [4 x ptr]], ptr %39, i64 0, i64 %41
  %43 = load i32, ptr %4, align 4
  %44 = sext i32 %43 to i64
  %45 = getelementptr inbounds [4 x ptr], ptr %42, i64 0, i64 %44
  %46 = load ptr, ptr %45, align 8
  %47 = getelementptr inbounds ptr, ptr %46, i64 0
  %48 = load ptr, ptr %47, align 8
  %49 = getelementptr inbounds nuw %class.TransTableS, ptr %5, i32 0, i32 26
  %50 = load i32, ptr %3, align 4
  %51 = sext i32 %50 to i64
  %52 = getelementptr inbounds [14 x [4 x ptr]], ptr %49, i64 0, i64 %51
  %53 = load i32, ptr %4, align 4
  %54 = sext i32 %53 to i64
  %55 = getelementptr inbounds [4 x ptr], ptr %52, i64 0, i64 %54
  store ptr %48, ptr %55, align 8
  %56 = getelementptr inbounds nuw %class.TransTableS, ptr %5, i32 0, i32 29
  %57 = load i32, ptr %3, align 4
  %58 = sext i32 %57 to i64
  %59 = getelementptr inbounds [14 x [4 x i32]], ptr %56, i64 0, i64 %58
  %60 = load i32, ptr %4, align 4
  %61 = sext i32 %60 to i64
  %62 = getelementptr inbounds [4 x i32], ptr %59, i64 0, i64 %61
  store i32 0, ptr %62, align 4
  %63 = getelementptr inbounds nuw %class.TransTableS, ptr %5, i32 0, i32 30
  %64 = load i32, ptr %3, align 4
  %65 = sext i32 %64 to i64
  %66 = getelementptr inbounds [14 x [4 x i32]], ptr %63, i64 0, i64 %65
  %67 = load i32, ptr %4, align 4
  %68 = sext i32 %67 to i64
  %69 = getelementptr inbounds [4 x i32], ptr %66, i64 0, i64 %68
  store i32 0, ptr %69, align 4
  br label %70

70:                                               ; preds = %38
  %71 = load i32, ptr %4, align 4
  %72 = add nsw i32 %71, 1
  store i32 %72, ptr %4, align 4
  br label %35, !llvm.loop !22

73:                                               ; preds = %35
  br label %74

74:                                               ; preds = %73
  %75 = load i32, ptr %3, align 4
  %76 = add nsw i32 %75, 1
  store i32 %76, ptr %3, align 4
  br label %31, !llvm.loop !23

77:                                               ; preds = %31
  ret void
}