; Function Attrs: mustprogress nofree norecurse nosync nounwind memory(read, argmem: readwrite, inaccessiblemem: none) uwtable
define void @_ZN11TransTableS6InitTTEv(ptr nocapture noundef nonnull align 8 dereferenceable(2396) %0) local_unnamed_addr #14 align 2 {
  %2 = getelementptr inbounds nuw i8, ptr %0, i64 356
  store i32 170000, ptr %2, align 4
  %3 = getelementptr inbounds nuw i8, ptr %0, i64 352
  store i32 60000, ptr %3, align 8
  %4 = getelementptr inbounds nuw i8, ptr %0, i64 368
  store i64 7614512, ptr %4, align 8
  %5 = getelementptr inbounds nuw i8, ptr %0, i64 872
  %6 = load ptr, ptr %5, align 8
  %7 = load ptr, ptr %6, align 8
  %8 = getelementptr inbounds nuw i8, ptr %0, i64 1344
  store ptr %7, ptr %8, align 8
  %9 = getelementptr inbounds nuw i8, ptr %0, i64 880
  %10 = load ptr, ptr %9, align 8
  %11 = load ptr, ptr %10, align 8
  %12 = getelementptr inbounds nuw i8, ptr %0, i64 1336
  store ptr %11, ptr %12, align 8
  %13 = getelementptr inbounds nuw i8, ptr %0, i64 396
  %14 = getelementptr inbounds nuw i8, ptr %0, i64 1800
  store i32 0, ptr %14, align 8
  %15 = getelementptr inbounds nuw i8, ptr %0, i64 1804
  store i32 0, ptr %15, align 4
  %16 = getelementptr inbounds nuw i8, ptr %0, i64 408
  tail call void @llvm.memset.p0.i64(ptr noundef nonnull align 4 dereferenceable(9) %13, i8 0, i64 9, i1 false)
  store i32 -1, ptr %16, align 8
  %17 = getelementptr inbounds nuw i8, ptr %0, i64 888
  %18 = getelementptr inbounds nuw i8, ptr %0, i64 1352
  %19 = getelementptr inbounds nuw i8, ptr %0, i64 1808
  %20 = getelementptr inbounds nuw i8, ptr %0, i64 2032
  br label %.preheader

.preheader:                                       ; preds = %1, %28
  %indvars.iv16 = phi i64 [ 1, %1 ], [ %indvars.iv.next17, %28 ]
  br label %21

21:                                               ; preds = %.preheader, %21
  %indvars.iv = phi i64 [ 0, %.preheader ], [ %indvars.iv.next, %21 ]
  %22 = getelementptr inbounds [14 x [4 x ptr]], ptr %17, i64 0, i64 %indvars.iv16, i64 %indvars.iv
  %23 = load ptr, ptr %22, align 8
  %24 = load ptr, ptr %23, align 8
  %25 = getelementptr inbounds [14 x [4 x ptr]], ptr %18, i64 0, i64 %indvars.iv16, i64 %indvars.iv
  store ptr %24, ptr %25, align 8
  %26 = getelementptr inbounds [14 x [4 x i32]], ptr %19, i64 0, i64 %indvars.iv16, i64 %indvars.iv
  store i32 0, ptr %26, align 4
  %27 = getelementptr inbounds [14 x [4 x i32]], ptr %20, i64 0, i64 %indvars.iv16, i64 %indvars.iv
  store i32 0, ptr %27, align 4
  %indvars.iv.next = add nuw nsw i64 %indvars.iv, 1
  %exitcond.not = icmp eq i64 %indvars.iv.next, 4
  br i1 %exitcond.not, label %28, label %21, !llvm.loop !22

28:                                               ; preds = %21
  %indvars.iv.next17 = add nuw nsw i64 %indvars.iv16, 1
  %exitcond19.not = icmp eq i64 %indvars.iv.next17, 14
  br i1 %exitcond19.not, label %29, label %.preheader, !llvm.loop !23

29:                                               ; preds = %28
  ret void
}